target datalayout = "e-m:e-p270:32:32-p271:32:32-p272:64:64-i64:64-i128:128-f80:128-n8:16:32:64-S128"
target triple = "x86_64-pc-linux-gnu"

%struct.RangeBound = type { i64, i8, i8, i8 }
%struct.FunctionCallInfoBaseData = type { ptr, ptr, ptr, i32, i8, i16, [0 x %struct.NullableDatum] }
%struct.NullableDatum = type { i64, i8 }
%struct.FmgrInfo = type { ptr, i32, i16, i8, i8, i8, ptr, ptr, ptr }
%struct.TypeCacheEntry = type { i32, i32, i16, i8, i8, i8, i8, i32, i32, i32, i32, i32, i32, i32, i32, i32, i32, i32, i32, i32, i32, %struct.FmgrInfo, %struct.FmgrInfo, %struct.FmgrInfo, %struct.FmgrInfo, ptr, i64, ptr, i32, i32, %struct.FmgrInfo, %struct.FmgrInfo, %struct.FmgrInfo, ptr, i32, i32, ptr, i32, ptr, ptr }
%struct.RangeType = type { i32, i32 }
%struct.anon = type { i32, [0 x i8] }

@.str.1 = private unnamed_addr constant [13 x i8] c"rangetypes.c\00", align 1
@.str.8 = private unnamed_addr constant [47 x i8] c"could not identify a hash function for type %s\00", align 1
@__func__.hash_range = private unnamed_addr constant [11 x i8] c"hash_range\00", align 1
@.str.12 = private unnamed_addr constant [28 x i8] c"type %u is not a range type\00", align 1
@__func__.range_get_typcache = private unnamed_addr constant [19 x i8] c"range_get_typcache\00", align 1

; Function Attrs: inlinehint nounwind uwtable
define internal i64 @UInt32GetDatum(i32 noundef %0) #2 {
  %2 = alloca i32, align 4
  store i32 %0, ptr %2, align 4
  %3 = load i32, ptr %2, align 4
  %4 = zext i32 %3 to i64
  ret i64 %4
}

; Function Attrs: inlinehint nounwind uwtable
define internal ptr @DatumGetPointer(i64 noundef %0) #2 {
  %2 = alloca i64, align 8
  store i64 %0, ptr %2, align 8
  %3 = load i64, ptr %2, align 8
  %4 = inttoptr i64 %3 to ptr
  ret ptr %4
}

; Function Attrs: inlinehint nounwind uwtable
define internal i64 @Int32GetDatum(i32 noundef %0) #2 {
  %2 = alloca i32, align 4
  store i32 %0, ptr %2, align 4
  %3 = load i32, ptr %2, align 4
  %4 = sext i32 %3 to i64
  ret i64 %4
}

; Function Attrs: inlinehint nounwind uwtable
define internal i32 @pg_rotate_left32(i32 noundef %0, i32 noundef %1) #2 {
  %3 = alloca i32, align 4
  %4 = alloca i32, align 4
  store i32 %0, ptr %3, align 4
  store i32 %1, ptr %4, align 4
  %5 = load i32, ptr %3, align 4
  %6 = load i32, ptr %4, align 4
  %7 = shl i32 %5, %6
  %8 = load i32, ptr %3, align 4
  %9 = load i32, ptr %4, align 4
  %10 = sub i32 32, %9
  %11 = lshr i32 %8, %10
  %12 = or i32 %7, %11
  ret i32 %12
}

; Function Attrs: inlinehint nounwind uwtable
define internal i64 @hash_uint32(i32 noundef %0) #2 {
  %2 = alloca i32, align 4
  store i32 %0, ptr %2, align 4
  %3 = load i32, ptr %2, align 4
  %4 = call i32 @hash_bytes_uint32(i32 noundef %3)
  %5 = call i64 @UInt32GetDatum(i32 noundef %4)
  ret i64 %5
}

; Function Attrs: inlinehint nounwind uwtable
define internal i32 @DatumGetUInt32(i64 noundef %0) #2 {
  %2 = alloca i64, align 8
  store i64 %0, ptr %2, align 8
  %3 = load i64, ptr %2, align 8
  %4 = trunc i64 %3 to i32
  ret i32 %4
}

; Function Attrs: nounwind uwtable
define dso_local signext i8 @range_get_flags(ptr noundef %0) #0 {
  %2 = alloca ptr, align 8
  store ptr %0, ptr %2, align 8
  %3 = load ptr, ptr %2, align 8
  %4 = load ptr, ptr %2, align 8
  %5 = getelementptr inbounds nuw %struct.anon, ptr %4, i32 0, i32 0
  %6 = load i32, ptr %5, align 4
  %7 = lshr i32 %6, 2
  %8 = and i32 %7, 1073741823
  %9 = zext i32 %8 to i64
  %10 = getelementptr inbounds nuw i8, ptr %3, i64 %9
  %11 = getelementptr inbounds i8, ptr %10, i64 -1
  %12 = load i8, ptr %11, align 1
  ret i8 %12
}

; Function Attrs: nounwind uwtable
define dso_local ptr @range_get_typcache(ptr noundef %0, i32 noundef %1) #0 {
  %3 = alloca ptr, align 8
  %4 = alloca i32, align 4
  %5 = alloca ptr, align 8
  store ptr %0, ptr %3, align 8
  store i32 %1, ptr %4, align 4
  call void @llvm.lifetime.start.p0(i64 8, ptr %5) #10
  %6 = load ptr, ptr %3, align 8
  %7 = getelementptr inbounds nuw %struct.FunctionCallInfoBaseData, ptr %6, i32 0, i32 0
  %8 = load ptr, ptr %7, align 8
  %9 = getelementptr inbounds nuw %struct.FmgrInfo, ptr %8, i32 0, i32 6
  %10 = load ptr, ptr %9, align 8
  store ptr %10, ptr %5, align 8
  %11 = load ptr, ptr %5, align 8
  %12 = icmp eq ptr %11, null
  br i1 %12, label %19, label %13

13:                                               ; preds = %2
  %14 = load ptr, ptr %5, align 8
  %15 = getelementptr inbounds nuw %struct.TypeCacheEntry, ptr %14, i32 0, i32 0
  %16 = load i32, ptr %15, align 8
  %17 = load i32, ptr %4, align 4
  %18 = icmp ne i32 %16, %17
  br i1 %18, label %19, label %44

19:                                               ; preds = %13, %2
  %20 = load i32, ptr %4, align 4
  %21 = call ptr @lookup_type_cache(i32 noundef %20, i32 noundef 2048)
  store ptr %21, ptr %5, align 8
  %22 = load ptr, ptr %5, align 8
  %23 = getelementptr inbounds nuw %struct.TypeCacheEntry, ptr %22, i32 0, i32 27
  %24 = load ptr, ptr %23, align 8
  %25 = icmp eq ptr %24, null
  br i1 %25, label %26, label %38

26:                                               ; preds = %19
  br label %27

27:                                               ; preds = %26
  br i1 true, label %28, label %30

28:                                               ; preds = %27
  %29 = call zeroext i1 @errstart_cold(i32 noundef 21, ptr noundef null) #11
  br i1 %29, label %32, label %35

30:                                               ; preds = %27
  %31 = call zeroext i1 @errstart(i32 noundef 21, ptr noundef null)
  br i1 %31, label %32, label %35

32:                                               ; preds = %30, %28
  %33 = load i32, ptr %4, align 4
  %34 = call i32 (ptr, ...) @errmsg_internal(ptr noundef @.str.12, i32 noundef %33)
  call void @errfinish(ptr noundef @.str.1, i32 noundef 1712, ptr noundef @__func__.range_get_typcache)
  br label %35

35:                                               ; preds = %32, %30, %28
  unreachable

36:                                               ; No predecessors!
  br label %37

37:                                               ; preds = %36
  br label %38

38:                                               ; preds = %37, %19
  %39 = load ptr, ptr %5, align 8
  %40 = load ptr, ptr %3, align 8
  %41 = getelementptr inbounds nuw %struct.FunctionCallInfoBaseData, ptr %40, i32 0, i32 0
  %42 = load ptr, ptr %41, align 8
  %43 = getelementptr inbounds nuw %struct.FmgrInfo, ptr %42, i32 0, i32 6
  store ptr %39, ptr %43, align 8
  br label %44

44:                                               ; preds = %38, %13
  %45 = load ptr, ptr %5, align 8
  call void @llvm.lifetime.end.p0(i64 8, ptr %5) #10
  ret ptr %45
}

; Function Attrs: inlinehint nounwind uwtable
define internal ptr @DatumGetRangeTypeP(i64 noundef %0) #2 {
  %2 = alloca i64, align 8
  store i64 %0, ptr %2, align 8
  %3 = load i64, ptr %2, align 8
  %4 = call ptr @DatumGetPointer(i64 noundef %3)
  %5 = call ptr @pg_detoast_datum(ptr noundef %4)
  ret ptr %5
}

; Function Attrs: nounwind uwtable
define dso_local i64 @hash_range(ptr noundef %0) #0 {
  %2 = alloca ptr, align 8
  %3 = alloca ptr, align 8
  %4 = alloca i32, align 4
  %5 = alloca ptr, align 8
  %6 = alloca ptr, align 8
  %7 = alloca %struct.RangeBound, align 8
  %8 = alloca %struct.RangeBound, align 8
  %9 = alloca i8, align 1
  %10 = alloca i8, align 1
  %11 = alloca i32, align 4
  %12 = alloca i32, align 4
  store ptr %0, ptr %2, align 8
  call void @llvm.lifetime.start.p0(i64 8, ptr %3) #10
  %13 = load ptr, ptr %2, align 8
  %14 = getelementptr inbounds nuw %struct.FunctionCallInfoBaseData, ptr %13, i32 0, i32 6
  %15 = getelementptr inbounds [0 x %struct.NullableDatum], ptr %14, i64 0, i64 0
  %16 = getelementptr inbounds nuw %struct.NullableDatum, ptr %15, i32 0, i32 0
  %17 = load i64, ptr %16, align 8
  %18 = call ptr @DatumGetRangeTypeP(i64 noundef %17)
  store ptr %18, ptr %3, align 8
  call void @llvm.lifetime.start.p0(i64 4, ptr %4) #10
  call void @llvm.lifetime.start.p0(i64 8, ptr %5) #10
  call void @llvm.lifetime.start.p0(i64 8, ptr %6) #10
  call void @llvm.lifetime.start.p0(i64 16, ptr %7) #10
  call void @llvm.lifetime.start.p0(i64 16, ptr %8) #10
  call void @llvm.lifetime.start.p0(i64 1, ptr %9) #10
  call void @llvm.lifetime.start.p0(i64 1, ptr %10) #10
  call void @llvm.lifetime.start.p0(i64 4, ptr %11) #10
  call void @llvm.lifetime.start.p0(i64 4, ptr %12) #10
  call void @check_stack_depth()
  %19 = load ptr, ptr %2, align 8
  %20 = load ptr, ptr %3, align 8
  %21 = getelementptr inbounds nuw %struct.RangeType, ptr %20, i32 0, i32 1
  %22 = load i32, ptr %21, align 4
  %23 = call ptr @range_get_typcache(ptr noundef %19, i32 noundef %22)
  store ptr %23, ptr %5, align 8
  %24 = load ptr, ptr %5, align 8
  %25 = load ptr, ptr %3, align 8
  call void @range_deserialize(ptr noundef %24, ptr noundef %25, ptr noundef %7, ptr noundef %8, ptr noundef %9)
  %26 = load ptr, ptr %3, align 8
  %27 = call signext i8 @range_get_flags(ptr noundef %26)
  store i8 %27, ptr %10, align 1
  %28 = load ptr, ptr %5, align 8
  %29 = getelementptr inbounds nuw %struct.TypeCacheEntry, ptr %28, i32 0, i32 27
  %30 = load ptr, ptr %29, align 8
  store ptr %30, ptr %6, align 8
  %31 = load ptr, ptr %6, align 8
  %32 = getelementptr inbounds nuw %struct.TypeCacheEntry, ptr %31, i32 0, i32 23
  %33 = getelementptr inbounds nuw %struct.FmgrInfo, ptr %32, i32 0, i32 1
  %34 = load i32, ptr %33, align 8
  %35 = icmp ne i32 %34, 0
  br i1 %35, label %63, label %36

36:                                               ; preds = %1
  %37 = load ptr, ptr %6, align 8
  %38 = getelementptr inbounds nuw %struct.TypeCacheEntry, ptr %37, i32 0, i32 0
  %39 = load i32, ptr %38, align 8
  %40 = call ptr @lookup_type_cache(i32 noundef %39, i32 noundef 128)
  store ptr %40, ptr %6, align 8
  %41 = load ptr, ptr %6, align 8
  %42 = getelementptr inbounds nuw %struct.TypeCacheEntry, ptr %41, i32 0, i32 23
  %43 = getelementptr inbounds nuw %struct.FmgrInfo, ptr %42, i32 0, i32 1
  %44 = load i32, ptr %43, align 8
  %45 = icmp ne i32 %44, 0
  br i1 %45, label %62, label %46

46:                                               ; preds = %36
  br label %47

47:                                               ; preds = %46
  br i1 true, label %48, label %50

48:                                               ; preds = %47
  %49 = call zeroext i1 @errstart_cold(i32 noundef 21, ptr noundef null) #11
  br i1 %49, label %52, label %59

50:                                               ; preds = %47
  %51 = call zeroext i1 @errstart(i32 noundef 21, ptr noundef null)
  br i1 %51, label %52, label %59

52:                                               ; preds = %50, %48
  %53 = call i32 @errcode(i32 noundef 52461700)
  %54 = load ptr, ptr %6, align 8
  %55 = getelementptr inbounds nuw %struct.TypeCacheEntry, ptr %54, i32 0, i32 0
  %56 = load i32, ptr %55, align 8
  %57 = call ptr @format_type_be(i32 noundef %56)
  %58 = call i32 (ptr, ...) @errmsg(ptr noundef @.str.8, ptr noundef %57)
  call void @errfinish(ptr noundef @.str.1, i32 noundef 1362, ptr noundef @__func__.hash_range)
  br label %59

59:                                               ; preds = %52, %50, %48
  unreachable

60:                                               ; No predecessors!
  br label %61

61:                                               ; preds = %60
  br label %62

62:                                               ; preds = %61, %36
  br label %63

63:                                               ; preds = %62, %1
  %64 = load i8, ptr %10, align 1
  %65 = sext i8 %64 to i32
  %66 = and i32 %65, 41
  %67 = icmp ne i32 %66, 0
  br i1 %67, label %78, label %68

68:                                               ; preds = %63
  %69 = load ptr, ptr %6, align 8
  %70 = getelementptr inbounds nuw %struct.TypeCacheEntry, ptr %69, i32 0, i32 23
  %71 = load ptr, ptr %5, align 8
  %72 = getelementptr inbounds nuw %struct.TypeCacheEntry, ptr %71, i32 0, i32 29
  %73 = load i32, ptr %72, align 4
  %74 = getelementptr inbounds nuw %struct.RangeBound, ptr %7, i32 0, i32 0
  %75 = load i64, ptr %74, align 8
  %76 = call i64 @FunctionCall1Coll(ptr noundef %70, i32 noundef %73, i64 noundef %75)
  %77 = call i32 @DatumGetUInt32(i64 noundef %76)
  store i32 %77, ptr %11, align 4
  br label %79

78:                                               ; preds = %63
  store i32 0, ptr %11, align 4
  br label %79

79:                                               ; preds = %78, %68
  %80 = load i8, ptr %10, align 1
  %81 = sext i8 %80 to i32
  %82 = and i32 %81, 81
  %83 = icmp ne i32 %82, 0
  br i1 %83, label %94, label %84

84:                                               ; preds = %79
  %85 = load ptr, ptr %6, align 8
  %86 = getelementptr inbounds nuw %struct.TypeCacheEntry, ptr %85, i32 0, i32 23
  %87 = load ptr, ptr %5, align 8
  %88 = getelementptr inbounds nuw %struct.TypeCacheEntry, ptr %87, i32 0, i32 29
  %89 = load i32, ptr %88, align 4
  %90 = getelementptr inbounds nuw %struct.RangeBound, ptr %8, i32 0, i32 0
  %91 = load i64, ptr %90, align 8
  %92 = call i64 @FunctionCall1Coll(ptr noundef %86, i32 noundef %89, i64 noundef %91)
  %93 = call i32 @DatumGetUInt32(i64 noundef %92)
  store i32 %93, ptr %12, align 4
  br label %95

94:                                               ; preds = %79
  store i32 0, ptr %12, align 4
  br label %95

95:                                               ; preds = %94, %84
  %96 = load i8, ptr %10, align 1
  %97 = sext i8 %96 to i32
  %98 = call i64 @hash_uint32(i32 noundef %97)
  %99 = trunc i64 %98 to i32
  store i32 %99, ptr %4, align 4
  %100 = load i32, ptr %11, align 4
  %101 = load i32, ptr %4, align 4
  %102 = xor i32 %101, %100
  store i32 %102, ptr %4, align 4
  %103 = load i32, ptr %4, align 4
  %104 = call i32 @pg_rotate_left32(i32 noundef %103, i32 noundef 1)
  store i32 %104, ptr %4, align 4
  %105 = load i32, ptr %12, align 4
  %106 = load i32, ptr %4, align 4
  %107 = xor i32 %106, %105
  store i32 %107, ptr %4, align 4
  %108 = load i32, ptr %4, align 4
  %109 = call i64 @Int32GetDatum(i32 noundef %108)
  call void @llvm.lifetime.end.p0(i64 4, ptr %12) #10
  call void @llvm.lifetime.end.p0(i64 4, ptr %11) #10
  call void @llvm.lifetime.end.p0(i64 1, ptr %10) #10
  call void @llvm.lifetime.end.p0(i64 1, ptr %9) #10
  call void @llvm.lifetime.end.p0(i64 16, ptr %8) #10
  call void @llvm.lifetime.end.p0(i64 16, ptr %7) #10
  call void @llvm.lifetime.end.p0(i64 8, ptr %6) #10
  call void @llvm.lifetime.end.p0(i64 8, ptr %5) #10
  call void @llvm.lifetime.end.p0(i64 4, ptr %4) #10
  call void @llvm.lifetime.end.p0(i64 8, ptr %3) #10
  ret i64 %109
}