; Function Attrs: nounwind uwtable
define dso_local range(i64 -2147483648, 2147483648) i64 @hash_range(ptr noundef readonly captures(none) %0) local_unnamed_addr #0 {
  %2 = alloca %struct.RangeBound, align 8
  %3 = alloca %struct.RangeBound, align 8
  %4 = alloca i8, align 1
  %5 = getelementptr inbounds nuw i8, ptr %0, i64 32
  %6 = load i64, ptr %5, align 8
  %7 = inttoptr i64 %6 to ptr
  %8 = tail call ptr @pg_detoast_datum(ptr noundef %7) #14
  call void @llvm.lifetime.start.p0(i64 16, ptr nonnull %2) #14
  call void @llvm.lifetime.start.p0(i64 16, ptr nonnull %3) #14
  call void @llvm.lifetime.start.p0(i64 1, ptr nonnull %4) #14
  tail call void @check_stack_depth() #14
  %9 = getelementptr inbounds nuw i8, ptr %8, i64 4
  %10 = load i32, ptr %9, align 4
  %11 = load ptr, ptr %0, align 8
  %12 = getelementptr inbounds nuw i8, ptr %11, i64 24
  %13 = load ptr, ptr %12, align 8
  %14 = icmp eq ptr %13, null
  br i1 %14, label %17, label %15

15:                                               ; preds = %1
  %16 = load i32, ptr %13, align 8
  %.not.i = icmp eq i32 %16, %10
  br i1 %.not.i, label %range_get_typcache.exit, label %17

17:                                               ; preds = %15, %1
  %18 = tail call ptr @lookup_type_cache(i32 noundef %10, i32 noundef 2048) #14
  %19 = getelementptr inbounds nuw i8, ptr %18, i64 280
  %20 = load ptr, ptr %19, align 8
  %21 = icmp eq ptr %20, null
  br i1 %21, label %22, label %25

22:                                               ; preds = %17
  %23 = tail call zeroext i1 @errstart_cold(i32 noundef 21, ptr noundef null) #16
  tail call void @llvm.assume(i1 %23)
  %24 = tail call i32 (ptr, ...) @errmsg_internal(ptr noundef nonnull @.str.12, i32 noundef %10) #14
  tail call void @errfinish(ptr noundef nonnull @.str.1, i32 noundef 1712, ptr noundef nonnull @__func__.range_get_typcache) #14
  unreachable

25:                                               ; preds = %17
  %26 = load ptr, ptr %0, align 8
  %27 = getelementptr inbounds nuw i8, ptr %26, i64 24
  store ptr %18, ptr %27, align 8
  br label %range_get_typcache.exit

range_get_typcache.exit:                          ; preds = %15, %25
  %.0.i = phi ptr [ %18, %25 ], [ %13, %15 ]
  call void @range_deserialize(ptr noundef nonnull %.0.i, ptr noundef nonnull %8, ptr noundef nonnull %2, ptr noundef nonnull %3, ptr noundef nonnull %4)
  %28 = load i32, ptr %8, align 4
  %29 = lshr i32 %28, 2
  %30 = zext nneg i32 %29 to i64
  %31 = getelementptr inbounds nuw i8, ptr %8, i64 %30
  %32 = getelementptr inbounds i8, ptr %31, i64 -1
  %33 = load i8, ptr %32, align 1
  %34 = getelementptr inbounds nuw i8, ptr %.0.i, i64 280
  %35 = load ptr, ptr %34, align 8
  %36 = getelementptr inbounds nuw i8, ptr %35, i64 176
  %37 = load i32, ptr %36, align 8
  %.not = icmp eq i32 %37, 0
  br i1 %.not, label %38, label %49

38:                                               ; preds = %range_get_typcache.exit
  %39 = load i32, ptr %35, align 8
  %40 = tail call ptr @lookup_type_cache(i32 noundef %39, i32 noundef 128) #14
  %41 = getelementptr inbounds nuw i8, ptr %40, i64 176
  %42 = load i32, ptr %41, align 8
  %.not25 = icmp eq i32 %42, 0
  br i1 %.not25, label %43, label %49

43:                                               ; preds = %38
  %44 = tail call zeroext i1 @errstart_cold(i32 noundef 21, ptr noundef null) #16
  tail call void @llvm.assume(i1 %44)
  %45 = tail call i32 @errcode(i32 noundef 52461700) #14
  %46 = load i32, ptr %40, align 8
  %47 = tail call ptr @format_type_be(i32 noundef %46) #14
  %48 = tail call i32 (ptr, ...) @errmsg(ptr noundef nonnull @.str.8, ptr noundef %47) #14
  tail call void @errfinish(ptr noundef nonnull @.str.1, i32 noundef 1362, ptr noundef nonnull @__func__.hash_range) #14
  unreachable

49:                                               ; preds = %38, %range_get_typcache.exit
  %.024 = phi ptr [ %35, %range_get_typcache.exit ], [ %40, %38 ]
  %50 = and i8 %33, 41
  %.not26 = icmp eq i8 %50, 0
  br i1 %.not26, label %51, label %58

51:                                               ; preds = %49
  %52 = getelementptr inbounds nuw i8, ptr %.024, i64 168
  %53 = getelementptr inbounds nuw i8, ptr %.0.i, i64 292
  %54 = load i32, ptr %53, align 4
  %55 = load i64, ptr %2, align 8
  %56 = tail call i64 @FunctionCall1Coll(ptr noundef nonnull %52, i32 noundef %54, i64 noundef %55) #14
  %57 = trunc i64 %56 to i32
  br label %58

58:                                               ; preds = %49, %51
  %.023 = phi i32 [ %57, %51 ], [ 0, %49 ]
  %59 = and i8 %33, 81
  %.not27 = icmp eq i8 %59, 0
  br i1 %.not27, label %60, label %67

60:                                               ; preds = %58
  %61 = getelementptr inbounds nuw i8, ptr %.024, i64 168
  %62 = getelementptr inbounds nuw i8, ptr %.0.i, i64 292
  %63 = load i32, ptr %62, align 4
  %64 = load i64, ptr %3, align 8
  %65 = tail call i64 @FunctionCall1Coll(ptr noundef nonnull %61, i32 noundef %63, i64 noundef %64) #14
  %66 = trunc i64 %65 to i32
  br label %67

67:                                               ; preds = %58, %60
  %.0 = phi i32 [ %66, %60 ], [ 0, %58 ]
  %68 = sext i8 %33 to i32
  %69 = tail call i32 @hash_bytes_uint32(i32 noundef range(i32 -128, 128) %68) #14
  %70 = xor i32 %69, %.023
  %71 = tail call noundef i32 @llvm.fshl.i32(i32 %70, i32 %70, i32 1)
  %72 = xor i32 %71, %.0
  %73 = sext i32 %72 to i64
  call void @llvm.lifetime.end.p0(i64 1, ptr nonnull %4) #14
  call void @llvm.lifetime.end.p0(i64 16, ptr nonnull %3) #14
  call void @llvm.lifetime.end.p0(i64 16, ptr nonnull %2) #14
  ret i64 %73
}